; Function Attrs: nounwind uwtable
define hidden void @evsig_set_base_(ptr noundef %0) local_unnamed_addr #0 {
  %2 = load ptr, ptr @evsig_base_lock, align 8
  %.not = icmp eq ptr %2, null
  br i1 %.not, label %.thread, label %7

.thread:                                          ; preds = %1
  store ptr %0, ptr @evsig_base, align 8
  %3 = getelementptr inbounds nuw i8, ptr %0, i64 172
  %4 = load i32, ptr %3, align 4
  store i32 %4, ptr @evsig_base_n_signals_added, align 4
  %5 = getelementptr inbounds nuw i8, ptr %0, i64 164
  %6 = load i32, ptr %5, align 4
  store i32 %6, ptr @evsig_base_fd, align 4
  br label %17

7:                                                ; preds = %1
  %8 = load ptr, ptr getelementptr inbounds nuw (i8, ptr @evthread_lock_fns_, i64 24), align 8
  %9 = tail call i32 %8(i32 noundef 0, ptr noundef nonnull %2) #8
  %.pre = load ptr, ptr @evsig_base_lock, align 8
  store ptr %0, ptr @evsig_base, align 8
  %10 = getelementptr inbounds nuw i8, ptr %0, i64 172
  %11 = load i32, ptr %10, align 4
  store i32 %11, ptr @evsig_base_n_signals_added, align 4
  %12 = getelementptr inbounds nuw i8, ptr %0, i64 164
  %13 = load i32, ptr %12, align 4
  store i32 %13, ptr @evsig_base_fd, align 4
  %.not4 = icmp eq ptr %.pre, null
  br i1 %.not4, label %17, label %14

14:                                               ; preds = %7
  %15 = load ptr, ptr getelementptr inbounds nuw (i8, ptr @evthread_lock_fns_, i64 32), align 8
  %16 = tail call i32 %15(i32 noundef 0, ptr noundef nonnull %.pre) #8
  br label %17

17:                                               ; preds = %.thread, %7, %14
  ret void
}